(dp1
S'output'
p2
S"<class 'sqlite3.OperationalError'> Cannot add a NOT NULL column with default value NULL"
p3
sS'layer'
p4
S'/Users/ericpoels/ericcode/cs183/web2py/applications/slugtutor183/models/tables.py'
p5
sS'code'
p6
S'<code object <module> at 0x1089f9f30, file "/Users/ericpoels/ericcode/cs183/web2py/applications/slugtutor183/models/tables.py", line 10>'
p7
sS'snapshot'
p8
(dp9
S'exception'
p10
(dp11
S'__module__'
p12
S"'sqlite3'"
p13
sS'__getslice__'
p14
S"<method-wrapper '__getslice__' of OperationalError object>"
p15
sS'__str__'
p16
S"<method-wrapper '__str__' of OperationalError object>"
p17
sS'__reduce__'
p18
S'<built-in method __reduce__ of OperationalError object>'
p19
sS'__dict__'
p20
S'{}'
p21
sS'__sizeof__'
p22
S'<built-in method __sizeof__ of OperationalError object>'
p23
sS'__weakref__'
p24
S'None'
p25
sS'message'
p26
S"'Cannot add a NOT NULL column with default value NULL'"
p27
sS'__init__'
p28
S"<method-wrapper '__init__' of OperationalError object>"
p29
sS'__setattr__'
p30
S"<method-wrapper '__setattr__' of OperationalError object>"
p31
sS'__reduce_ex__'
p32
S'<built-in method __reduce_ex__ of OperationalError object>'
p33
sS'__new__'
p34
S'<built-in method __new__ of type object>'
p35
sS'__format__'
p36
S'<built-in method __format__ of OperationalError object>'
p37
sS'__class__'
p38
S"<class 'sqlite3.OperationalError'>"
p39
sS'__doc__'
p40
S'None'
p41
sS'__getitem__'
p42
S"<method-wrapper '__getitem__' of OperationalError object>"
p43
sS'__setstate__'
p44
S'<built-in method __setstate__ of OperationalError object>'
p45
sS'__getattribute__'
p46
S"<method-wrapper '__getattribute__' of OperationalError object>"
p47
sS'args'
p48
S"('Cannot add a NOT NULL column with default value NULL',)"
p49
sS'__subclasshook__'
p50
S'<built-in method __subclasshook__ of type object>'
p51
sS'__unicode__'
p52
S'<built-in method __unicode__ of OperationalError object>'
p53
sS'__delattr__'
p54
S"<method-wrapper '__delattr__' of OperationalError object>"
p55
sS'__repr__'
p56
S"<method-wrapper '__repr__' of OperationalError object>"
p57
sS'__hash__'
p58
S"<method-wrapper '__hash__' of OperationalError object>"
p59
ssS'evalue'
p60
S'Cannot add a NOT NULL column with default value NULL'
p61
sS'request'
p62
cgluon.html
XML_unpickle
p63
(S's\xebd\x00\x00<div><table><tr><td style="font-weight:bold;vertical-align:top;">ajax</td><td style="vertical-align:top;">:</td><td><div>False</div></td></tr><tr><td style="font-weight:bold;vertical-align:top;">application</td><td style="vertical-align:top;">:</td><td><div>slugtutor183</div></td></tr><tr><td style="font-weight:bold;vertical-align:top;">args</td><td style="vertical-align:top;">:</td><td><div><table></table></div></td></tr><tr><td style="font-weight:bold;vertical-align:top;">cid</td><td style="vertical-align:top;">:</td><td><div>None</div></td></tr><tr><td style="font-weight:bold;vertical-align:top;">client</td><td style="vertical-align:top;">:</td><td><div>127.0.0.1</div></td></tr><tr><td style="font-weight:bold;vertical-align:top;">controller</td><td style="vertical-align:top;">:</td><td><div>appadmin</div></td></tr><tr><td style="font-weight:bold;vertical-align:top;">cookies</td><td style="vertical-align:top;">:</td><td><div><table><tr><td style="font-weight:bold;vertical-align:top;">csrftoken</td><td style="vertical-align:top;">:</td><td><div>IC4k12UBwVkSOqg7MpEo3RM5k62vbuAggrdIrfSaybmIranEjB7DiHZ5GPeiUnN5<table><tr><td style="font-weight:bold;vertical-align:top;">comment</td><td style="vertical-align:top;">:</td><td><div></div></td></tr><tr><td style="font-weight:bold;vertical-align:top;">domain</td><td style="vertical-align:top;">:</td><td><div></div></td></tr><tr><td style="font-weight:bold;vertical-align:top;">expires</td><td style="vertical-align:top;">:</td><td><div></div></td></tr><tr><td style="font-weight:bold;vertical-align:top;">httponly</td><td style="vertical-align:top;">:</td><td><div></div></td></tr><tr><td style="font-weight:bold;vertical-align:top;">max-age</td><td style="vertical-align:top;">:</td><td><div></div></td></tr><tr><td style="font-weight:bold;vertical-align:top;">path</td><td style="vertical-align:top;">:</td><td><div></div></td></tr><tr><td style="font-weight:bold;vertical-align:top;">secure</td><td style="vertical-align:top;">:</td><td><div></div></td></tr><tr><td style="font-weight:bold;vertical-align:top;">version</td><td style="vertical-align:top;">:</td><td><div></div></td></tr></table></div></td></tr><tr><td style="font-weight:bold;vertical-align:top;">session_id_admin</td><td style="vertical-align:top;">:</td><td><div>127.0.0.1-be637df2-8241-4914-b103-435c5c69779b<table><tr><td style="font-weight:bold;vertical-align:top;">comment</td><td style="vertical-align:top;">:</td><td><div></div></td></tr><tr><td style="font-weight:bold;vertical-align:top;">domain</td><td style="vertical-align:top;">:</td><td><div></div></td></tr><tr><td style="font-weight:bold;vertical-align:top;">expires</td><td style="vertical-align:top;">:</td><td><div></div></td></tr><tr><td style="font-weight:bold;vertical-align:top;">httponly</td><td style="vertical-align:top;">:</td><td><div></div></td></tr><tr><td style="font-weight:bold;vertical-align:top;">max-age</td><td style="vertical-align:top;">:</td><td><div></div></td></tr><tr><td style="font-weight:bold;vertical-align:top;">path</td><td style="vertical-align:top;">:</td><td><div></div></td></tr><tr><td style="font-weight:bold;vertical-align:top;">secure</td><td style="vertical-align:top;">:</td><td><div></div></td></tr><tr><td style="font-weight:bold;vertical-align:top;">version</td><td style="vertical-align:top;">:</td><td><div></div></td></tr></table></div></td></tr><tr><td style="font-weight:bold;vertical-align:top;">session_id_slugtutor183</td><td style="vertical-align:top;">:</td><td><div>4:7e7d370a-b84d-4b71-ba3e-bf55ebcd4918<table><tr><td style="font-weight:bold;vertical-align:top;">comment</td><td style="vertical-align:top;">:</td><td><div></div></td></tr><tr><td style="font-weight:bold;vertical-align:top;">domain</td><td style="vertical-align:top;">:</td><td><div></div></td></tr><tr><td style="font-weight:bold;vertical-align:top;">expires</td><td style="vertical-align:top;">:</td><td><div></div></td></tr><tr><td style="font-weight:bold;vertical-align:top;">httponly</td><td style="vertical-align:top;">:</td><td><div></div></td></tr><tr><td style="font-weight:bold;vertical-align:top;">max-age</td><td style="vertical-align:top;">:</td><td><div></div></td></tr><tr><td style="font-weight:bold;vertical-align:top;">path</td><td style="vertical-align:top;">:</td><td><div></div></td></tr><tr><td style="font-weight:bold;vertical-align:top;">secure</td><td style="vertical-align:top;">:</td><td><div></div></td></tr><tr><td style="font-weight:bold;vertical-align:top;">version</td><td style="vertical-align:top;">:</td><td><div></div></td></tr></table></div></td></tr><tr><td style="font-weight:bold;vertical-align:top;">session_id_welcome</td><td style="vertical-align:top;">:</td><td><div>127.0.0.1-fcc22497-84f4-4a19-9a93-988219b49990<table><tr><td style="font-weight:bold;vertical-align:top;">comment</td><td style="vertical-align:top;">:</td><td><div></div></td></tr><tr><td style="font-weight:bold;vertical-align:top;">domain</td><td style="vertical-align:top;">:</td><td><div></div></td></tr><tr><td style="font-weight:bold;vertical-align:top;">expires</td><td style="vertical-align:top;">:</td><td><div></div></td></tr><tr><td style="font-weight:bold;vertical-align:top;">httponly</td><td style="vertical-align:top;">:</td><td><div></div></td></tr><tr><td style="font-weight:bold;vertical-align:top;">max-age</td><td style="vertical-align:top;">:</td><td><div></div></td></tr><tr><td style="font-weight:bold;vertical-align:top;">path</td><td style="vertical-align:top;">:</td><td><div></div></td></tr><tr><td style="font-weight:bold;vertical-align:top;">secure</td><td style="vertical-align:top;">:</td><td><div></div></td></tr><tr><td style="font-weight:bold;vertical-align:top;">version</td><td style="vertical-align:top;">:</td><td><div></div></td></tr></table></div></td></tr></table></div></td></tr><tr><td style="font-weight:bold;vertical-align:top;">env</td><td style="vertical-align:top;">:</td><td><div><table><tr><td style="font-weight:bold;vertical-align:top;">HTTP_ACCEPT</td><td style="vertical-align:top;">:</td><td><div>text/html,application/xhtml+xml,application/xml;q=0.9,image/webp,image/apng,*/*;q=0.8</div></td></tr><tr><td style="font-weight:bold;vertical-align:top;">HTTP_ACCEPT_ENCODING</td><td style="vertical-align:top;">:</td><td><div>gzip, deflate, br</div></td></tr><tr><td style="font-weight:bold;vertical-align:top;">HTTP_ACCEPT_LANGUAGE</td><td style="vertical-align:top;">:</td><td><div>en-US,en;q=0.9</div></td></tr><tr><td style="font-weight:bold;vertical-align:top;">HTTP_CONNECTION</td><td style="vertical-align:top;">:</td><td><div>keep-alive</div></td></tr><tr><td style="font-weight:bold;vertical-align:top;">HTTP_COOKIE</td><td style="vertical-align:top;">:</td><td><div>csrftoken=IC4k12UBwVkSOqg7MpEo3RM5k62vbuAggrdIrfSaybmIranEjB7DiHZ5GPeiUnN5; session_id_admin=127.0.0.1-be637df2-8241-4914-b103-435c5c69779b; session_id_slugtutor183=&quot;4:7e7d370a-b84d-4b71-ba3e-bf55ebcd4918&quot;; session_id_welcome=127.0.0.1-fcc22497-84f4-4a19-9a93-988219b49990</div></td></tr><tr><td style="font-weight:bold;vertical-align:top;">HTTP_HOST</td><td style="vertical-align:top;">:</td><td><div>127.0.0.1:8000</div></td></tr><tr><td style="font-weight:bold;vertical-align:top;">HTTP_REFERER</td><td style="vertical-align:top;">:</td><td><div>http://127.0.0.1:8000/admin/default/design/slugtutor183</div></td></tr><tr><td style="font-weight:bold;vertical-align:top;">HTTP_UPGRADE_INSECURE_REQUESTS</td><td style="vertical-align:top;">:</td><td><div>1</div></td></tr><tr><td style="font-weight:bold;vertical-align:top;">HTTP_USER_AGENT</td><td style="vertical-align:top;">:</td><td><div>Mozilla/5.0 (Macintosh; Intel Mac OS X 10_13_2) AppleWebKit/537.36 (KHTML, like Gecko) Chrome/66.0.3359.181 Safari/537.36</div></td></tr><tr><td style="font-weight:bold;vertical-align:top;">PATH_INFO</td><td style="vertical-align:top;">:</td><td><div>/slugtutor183/appadmin/index</div></td></tr><tr><td style="font-weight:bold;vertical-align:top;">QUERY_STRING</td><td style="vertical-align:top;">:</td><td><div></div></td></tr><tr><td style="font-weight:bold;vertical-align:top;">REMOTE_ADDR</td><td style="vertical-align:top;">:</td><td><div>127.0.0.1</div></td></tr><tr><td style="font-weight:bold;vertical-align:top;">REMOTE_PORT</td><td style="vertical-align:top;">:</td><td><div>55191</div></td></tr><tr><td style="font-weight:bold;vertical-align:top;">REQUEST_METHOD</td><td style="vertical-align:top;">:</td><td><div>GET</div></td></tr><tr><td style="font-weight:bold;vertical-align:top;">SCRIPT_NAME</td><td style="vertical-align:top;">:</td><td><div></div></td></tr><tr><td style="font-weight:bold;vertical-align:top;">SERVER_NAME</td><td style="vertical-align:top;">:</td><td><div>Wifi-GetAround.local</div></td></tr><tr><td style="font-weight:bold;vertical-align:top;">SERVER_PORT</td><td style="vertical-align:top;">:</td><td><div>8000</div></td></tr><tr><td style="font-weight:bold;vertical-align:top;">SERVER_PROTOCOL</td><td style="vertical-align:top;">:</td><td><div>HTTP/1.1</div></td></tr><tr><td style="font-weight:bold;vertical-align:top;">SERVER_SOFTWARE</td><td style="vertical-align:top;">:</td><td><div>Rocket 1.2.6</div></td></tr><tr><td style="font-weight:bold;vertical-align:top;">app_folders</td><td style="vertical-align:top;">:</td><td><div>set([&#x27;/Users/ericpoels/ericcode/cs183/web2py/applications/welcome/&#x27;, &#x27;/Users/ericpoels/ericcode/cs183/web2py/applications/admin/&#x27;, &#x27;/Users/ericpoels/ericcode/cs183/web2py/applications/slugtutor183/&#x27;])</div></td></tr><tr><td style="font-weight:bold;vertical-align:top;">applications_parent</td><td style="vertical-align:top;">:</td><td><div>/Users/ericpoels/ericcode/cs183/web2py</div></td></tr><tr><td style="font-weight:bold;vertical-align:top;">cmd_args</td><td style="vertical-align:top;">:</td><td><div><table></table></div></td></tr><tr><td style="font-weight:bold;vertical-align:top;">cmd_options</td><td style="vertical-align:top;">:</td><td><div>&lt;Values at 0x102546908: {&#x27;verbose&#x27;: False, &#x27;ip&#x27;: &#x27;127.0.0.1&#x27;, &#x27;debuglevel&#x27;: 30, &#x27;with_scheduler&#x27;: False, &#x27;shutdown_timeout&#x27;: 5, &#x27;taskbar&#x27;: False, &#x27;with_coverage&#x27;: False, &#x27;pid_filename&#x27;: &#x27;httpserver.pid&#x27;, &#x27;maxthreads&#x27;: None, &#x27;softcron&#x27;: False, &#x27;server_name&#x27;: &#x27;Wifi-GetAround.local&#x27;, &#x27;bpython&#x27;: False, &#x27;nogui&#x27;: False, &#x27;port&#x27;: 8000, &#x27;print_errors&#x27;: False, &#x27;extcron&#x27;: False, &#x27;runcron&#x27;: False, &#x27;run_system_tests&#x27;: False, &#x27;test&#x27;: None, &#x27;folder&#x27;: &#x27;/Users/ericpoels/ericcode/cs183/web2py&#x27;, &#x27;config&#x27;: &#x27;&#x27;, &#x27;minthreads&#x27;: None, &#x27;shell&#x27;: None, &#x27;run&#x27;: &#x27;&#x27;, &#x27;log_filename&#x27;: &#x27;httpserver.log&#x27;, &#x27;profiler_dir&#x27;: None, &#x27;args&#x27;: [&#x27;&#x27;], &#x27;socket_timeout&#x27;: 5, &#x27;ssl_ca_certificate&#x27;: None, &#x27;scheduler&#x27;: None, &#x27;interfaces&#x27;: None, &#x27;ssl_private_key&#x27;: &#x27;&#x27;, &#x27;gae&#x27;: None, &#x27;password&#x27;: &#x27;******&#x27;, &#x27;request_queue_size&#x27;: 5, &#x27;ssl_certificate&#x27;: &#x27;&#x27;, &#x27;cronjob&#x27;: False, &#x27;numthreads&#x27;: None, &#x27;quiet&#x27;: False, &#x27;import_models&#x27;: False, &#x27;timeout&#x27;: 10, &#x27;plain&#x27;: False, &#x27;nobanner&#x27;: False}&gt;</div></td></tr><tr><td style="font-weight:bold;vertical-align:top;">db_sessions</td><td style="vertical-align:top;">:</td><td><div>set([&#x27;slugtutor183&#x27;])</div></td></tr><tr><td style="font-weight:bold;vertical-align:top;">debugging</td><td style="vertical-align:top;">:</td><td><div>False</div></td></tr><tr><td style="font-weight:bold;vertical-align:top;">gluon_parent</td><td style="vertical-align:top;">:</td><td><div>/Users/ericpoels/ericcode/cs183/web2py</div></td></tr><tr><td style="font-weight:bold;vertical-align:top;">http_accept</td><td style="vertical-align:top;">:</td><td><div>text/html,application/xhtml+xml,application/xml;q=0.9,image/webp,image/apng,*/*;q=0.8</div></td></tr><tr><td style="font-weight:bold;vertical-align:top;">http_accept_encoding</td><td style="vertical-align:top;">:</td><td><div>gzip, deflate, br</div></td></tr><tr><td style="font-weight:bold;vertical-align:top;">http_accept_language</td><td style="vertical-align:top;">:</td><td><div>en-US,en;q=0.9</div></td></tr><tr><td style="font-weight:bold;vertical-align:top;">http_connection</td><td style="vertical-align:top;">:</td><td><div>keep-alive</div></td></tr><tr><td style="font-weight:bold;vertical-align:top;">http_cookie</td><td style="vertical-align:top;">:</td><td><div>csrftoken=IC4k12UBwVkSOqg7MpEo3RM5k62vbuAggrdIrfSaybmIranEjB7DiHZ5GPeiUnN5; session_id_admin=127.0.0.1-be637df2-8241-4914-b103-435c5c69779b; session_id_slugtutor183=&quot;4:7e7d370a-b84d-4b71-ba3e-bf55ebcd4918&quot;; session_id_welcome=127.0.0.1-fcc22497-84f4-4a19-9a93-988219b49990</div></td></tr><tr><td style="font-weight:bold;vertical-align:top;">http_host</td><td style="vertical-align:top;">:</td><td><div>127.0.0.1:8000</div></td></tr><tr><td style="font-weight:bold;vertical-align:top;">http_referer</td><td style="vertical-align:top;">:</td><td><div>http://127.0.0.1:8000/admin/default/design/slugtutor183</div></td></tr><tr><td style="font-weight:bold;vertical-align:top;">http_upgrade_insecure_requests</td><td style="vertical-align:top;">:</td><td><div>1</div></td></tr><tr><td style="font-weight:bold;vertical-align:top;">http_user_agent</td><td style="vertical-align:top;">:</td><td><div>Mozilla/5.0 (Macintosh; Intel Mac OS X 10_13_2) AppleWebKit/537.36 (KHTML, like Gecko) Chrome/66.0.3359.181 Safari/537.36</div></td></tr><tr><td style="font-weight:bold;vertical-align:top;">is_jython</td><td style="vertical-align:top;">:</td><td><div>False</div></td></tr><tr><td style="font-weight:bold;vertical-align:top;">is_py2</td><td style="vertical-align:top;">:</td><td><div>True</div></td></tr><tr><td style="font-weight:bold;vertical-align:top;">is_pypy</td><td style="vertical-align:top;">:</td><td><div>False</div></td></tr><tr><td style="font-weight:bold;vertical-align:top;">is_source</td><td style="vertical-align:top;">:</td><td><div>True</div></td></tr><tr><td style="font-weight:bold;vertical-align:top;">local_hosts</td><td style="vertical-align:top;">:</td><td><div><table><tr><td><div>192.168.1.21</div></td></tr><tr><td><div>::ffff:127.0.0.1</div></td></tr><tr><td><div>::1</div></td></tr><tr><td><div>fe80::1c7a:6e73:3236:3a%en0</div></td></tr><tr><td><div>fe80::7879:19ff:fe1f:d8f6%ham0</div></td></tr><tr><td><div>2620:9b::191f:d8f6</div></td></tr><tr><td><div>Wifi-GetAround.local</div></td></tr><tr><td><div>25.31.216.246</div></td></tr><tr><td><div>127.0.0.1</div></td></tr></table></div></td></tr><tr><td style="font-weight:bold;vertical-align:top;">path_info</td><td style="vertical-align:top;">:</td><td><div>/slugtutor183/appadmin/index</div></td></tr><tr><td style="font-weight:bold;vertical-align:top;">query_string</td><td style="vertical-align:top;">:</td><td><div></div></td></tr><tr><td style="font-weight:bold;vertical-align:top;">remote_addr</td><td style="vertical-align:top;">:</td><td><div>127.0.0.1</div></td></tr><tr><td style="font-weight:bold;vertical-align:top;">remote_port</td><td style="vertical-align:top;">:</td><td><div>55191</div></td></tr><tr><td style="font-weight:bold;vertical-align:top;">request_method</td><td style="vertical-align:top;">:</td><td><div>GET</div></td></tr><tr><td style="font-weight:bold;vertical-align:top;">request_uri</td><td style="vertical-align:top;">:</td><td><div>/slugtutor183/appadmin/index</div></td></tr><tr><td style="font-weight:bold;vertical-align:top;">script_name</td><td style="vertical-align:top;">:</td><td><div></div></td></tr><tr><td style="font-weight:bold;vertical-align:top;">server_name</td><td style="vertical-align:top;">:</td><td><div>Wifi-GetAround.local</div></td></tr><tr><td style="font-weight:bold;vertical-align:top;">server_port</td><td style="vertical-align:top;">:</td><td><div>8000</div></td></tr><tr><td style="font-weight:bold;vertical-align:top;">server_protocol</td><td style="vertical-align:top;">:</td><td><div>HTTP/1.1</div></td></tr><tr><td style="font-weight:bold;vertical-align:top;">server_software</td><td style="vertical-align:top;">:</td><td><div>Rocket 1.2.6</div></td></tr><tr><td style="font-weight:bold;vertical-align:top;">web2py_path</td><td style="vertical-align:top;">:</td><td><div>/Users/ericpoels/ericcode/cs183/web2py</div></td></tr><tr><td style="font-weight:bold;vertical-align:top;">web2py_version</td><td style="vertical-align:top;">:</td><td><div>2.16.1-stable+timestamp.2017.11.14.05.54.25</div></td></tr><tr><td style="font-weight:bold;vertical-align:top;">wsgi.errors</td><td style="vertical-align:top;">:</td><td><div>&lt;open file &#x27;&lt;stderr&gt;&#x27;, mode &#x27;w&#x27; at 0x1017701e0&gt;</div></td></tr><tr><td style="font-weight:bold;vertical-align:top;">wsgi.file_wrapper</td><td style="vertical-align:top;">:</td><td><div>&lt;class wsgiref.util.FileWrapper at 0x1025023f8&gt;</div></td></tr><tr><td style="font-weight:bold;vertical-align:top;">wsgi.input</td><td style="vertical-align:top;">:</td><td><div>&lt;socket._fileobject object at 0x1025126d0&gt;</div></td></tr><tr><td style="font-weight:bold;vertical-align:top;">wsgi.multiprocess</td><td style="vertical-align:top;">:</td><td><div>False</div></td></tr><tr><td style="font-weight:bold;vertical-align:top;">wsgi.multithread</td><td style="vertical-align:top;">:</td><td><div>True</div></td></tr><tr><td style="font-weight:bold;vertical-align:top;">wsgi.run_once</td><td style="vertical-align:top;">:</td><td><div>False</div></td></tr><tr><td style="font-weight:bold;vertical-align:top;">wsgi.url_scheme</td><td style="vertical-align:top;">:</td><td><div>http</div></td></tr><tr><td style="font-weight:bold;vertical-align:top;">wsgi.version</td><td style="vertical-align:top;">:</td><td><div><table><tr><td><div>1</div></td></tr><tr><td><div>0</div></td></tr></table></div></td></tr><tr><td style="font-weight:bold;vertical-align:top;">wsgi_errors</td><td style="vertical-align:top;">:</td><td><div>&lt;open file &#x27;&lt;stderr&gt;&#x27;, mode &#x27;w&#x27; at 0x1017701e0&gt;</div></td></tr><tr><td style="font-weight:bold;vertical-align:top;">wsgi_file_wrapper</td><td style="vertical-align:top;">:</td><td><div>&lt;class wsgiref.util.FileWrapper at 0x1025023f8&gt;</div></td></tr><tr><td style="font-weight:bold;vertical-align:top;">wsgi_input</td><td style="vertical-align:top;">:</td><td><div>&lt;socket._fileobject object at 0x1025126d0&gt;</div></td></tr><tr><td style="font-weight:bold;vertical-align:top;">wsgi_multiprocess</td><td style="vertical-align:top;">:</td><td><div>False</div></td></tr><tr><td style="font-weight:bold;vertical-align:top;">wsgi_multithread</td><td style="vertical-align:top;">:</td><td><div>True</div></td></tr><tr><td style="font-weight:bold;vertical-align:top;">wsgi_run_once</td><td style="vertical-align:top;">:</td><td><div>False</div></td></tr><tr><td style="font-weight:bold;vertical-align:top;">wsgi_url_scheme</td><td style="vertical-align:top;">:</td><td><div>http</div></td></tr><tr><td style="font-weight:bold;vertical-align:top;">wsgi_version</td><td style="vertical-align:top;">:</td><td><div><table><tr><td><div>1</div></td></tr><tr><td><div>0</div></td></tr></table></div></td></tr></table></div></td></tr><tr><td style="font-weight:bold;vertical-align:top;">extension</td><td style="vertical-align:top;">:</td><td><div>html</div></td></tr><tr><td style="font-weight:bold;vertical-align:top;">folder</td><td style="vertical-align:top;">:</td><td><div>/Users/ericpoels/ericcode/cs183/web2py/applications/slugtutor183/</div></td></tr><tr><td style="font-weight:bold;vertical-align:top;">function</td><td style="vertical-align:top;">:</td><td><div>index</div></td></tr><tr><td style="font-weight:bold;vertical-align:top;">global_settings</td><td style="vertical-align:top;">:</td><td><div><table><tr><td style="font-weight:bold;vertical-align:top;">app_folders</td><td style="vertical-align:top;">:</td><td><div>set([&#x27;/Users/ericpoels/ericcode/cs183/web2py/applications/welcome/&#x27;, &#x27;/Users/ericpoels/ericcode/cs183/web2py/applications/admin/&#x27;, &#x27;/Users/ericpoels/ericcode/cs183/web2py/applications/slugtutor183/&#x27;])</div></td></tr><tr><td style="font-weight:bold;vertical-align:top;">applications_parent</td><td style="vertical-align:top;">:</td><td><div>/Users/ericpoels/ericcode/cs183/web2py</div></td></tr><tr><td style="font-weight:bold;vertical-align:top;">cmd_args</td><td style="vertical-align:top;">:</td><td><div><table></table></div></td></tr><tr><td style="font-weight:bold;vertical-align:top;">cmd_options</td><td style="vertical-align:top;">:</td><td><div>&lt;Values at 0x102546908: {&#x27;verbose&#x27;: False, &#x27;ip&#x27;: &#x27;127.0.0.1&#x27;, &#x27;debuglevel&#x27;: 30, &#x27;with_scheduler&#x27;: False, &#x27;shutdown_timeout&#x27;: 5, &#x27;taskbar&#x27;: False, &#x27;with_coverage&#x27;: False, &#x27;pid_filename&#x27;: &#x27;httpserver.pid&#x27;, &#x27;maxthreads&#x27;: None, &#x27;softcron&#x27;: False, &#x27;server_name&#x27;: &#x27;Wifi-GetAround.local&#x27;, &#x27;bpython&#x27;: False, &#x27;nogui&#x27;: False, &#x27;port&#x27;: 8000, &#x27;print_errors&#x27;: False, &#x27;extcron&#x27;: False, &#x27;runcron&#x27;: False, &#x27;run_system_tests&#x27;: False, &#x27;test&#x27;: None, &#x27;folder&#x27;: &#x27;/Users/ericpoels/ericcode/cs183/web2py&#x27;, &#x27;config&#x27;: &#x27;&#x27;, &#x27;minthreads&#x27;: None, &#x27;shell&#x27;: None, &#x27;run&#x27;: &#x27;&#x27;, &#x27;log_filename&#x27;: &#x27;httpserver.log&#x27;, &#x27;profiler_dir&#x27;: None, &#x27;args&#x27;: [&#x27;&#x27;], &#x27;socket_timeout&#x27;: 5, &#x27;ssl_ca_certificate&#x27;: None, &#x27;scheduler&#x27;: None, &#x27;interfaces&#x27;: None, &#x27;ssl_private_key&#x27;: &#x27;&#x27;, &#x27;gae&#x27;: None, &#x27;password&#x27;: &#x27;******&#x27;, &#x27;request_queue_size&#x27;: 5, &#x27;ssl_certificate&#x27;: &#x27;&#x27;, &#x27;cronjob&#x27;: False, &#x27;numthreads&#x27;: None, &#x27;quiet&#x27;: False, &#x27;import_models&#x27;: False, &#x27;timeout&#x27;: 10, &#x27;plain&#x27;: False, &#x27;nobanner&#x27;: False}&gt;</div></td></tr><tr><td style="font-weight:bold;vertical-align:top;">db_sessions</td><td style="vertical-align:top;">:</td><td><div>set([&#x27;slugtutor183&#x27;])</div></td></tr><tr><td style="font-weight:bold;vertical-align:top;">debugging</td><td style="vertical-align:top;">:</td><td><div>False</div></td></tr><tr><td style="font-weight:bold;vertical-align:top;">gluon_parent</td><td style="vertical-align:top;">:</td><td><div>/Users/ericpoels/ericcode/cs183/web2py</div></td></tr><tr><td style="font-weight:bold;vertical-align:top;">is_jython</td><td style="vertical-align:top;">:</td><td><div>False</div></td></tr><tr><td style="font-weight:bold;vertical-align:top;">is_py2</td><td style="vertical-align:top;">:</td><td><div>True</div></td></tr><tr><td style="font-weight:bold;vertical-align:top;">is_pypy</td><td style="vertical-align:top;">:</td><td><div>False</div></td></tr><tr><td style="font-weight:bold;vertical-align:top;">is_source</td><td style="vertical-align:top;">:</td><td><div>True</div></td></tr><tr><td style="font-weight:bold;vertical-align:top;">local_hosts</td><td style="vertical-align:top;">:</td><td><div><table><tr><td><div>192.168.1.21</div></td></tr><tr><td><div>::ffff:127.0.0.1</div></td></tr><tr><td><div>::1</div></td></tr><tr><td><div>fe80::1c7a:6e73:3236:3a%en0</div></td></tr><tr><td><div>fe80::7879:19ff:fe1f:d8f6%ham0</div></td></tr><tr><td><div>2620:9b::191f:d8f6</div></td></tr><tr><td><div>Wifi-GetAround.local</div></td></tr><tr><td><div>25.31.216.246</div></td></tr><tr><td><div>127.0.0.1</div></td></tr></table></div></td></tr><tr><td style="font-weight:bold;vertical-align:top;">web2py_version</td><td style="vertical-align:top;">:</td><td><div>2.16.1-stable+timestamp.2017.11.14.05.54.25</div></td></tr></table></div></td></tr><tr><td style="font-weight:bold;vertical-align:top;">is_https</td><td style="vertical-align:top;">:</td><td><div>False</div></td></tr><tr><td style="font-weight:bold;vertical-align:top;">is_local</td><td style="vertical-align:top;">:</td><td><div>True</div></td></tr><tr><td style="font-weight:bold;vertical-align:top;">is_restful</td><td style="vertical-align:top;">:</td><td><div>False</div></td></tr><tr><td style="font-weight:bold;vertical-align:top;">is_scheduler</td><td style="vertical-align:top;">:</td><td><div>False</div></td></tr><tr><td style="font-weight:bold;vertical-align:top;">is_shell</td><td style="vertical-align:top;">:</td><td><div>False</div></td></tr><tr><td style="font-weight:bold;vertical-align:top;">now</td><td style="vertical-align:top;">:</td><td><div>datetime.datetime(2018, 5, 24, 12, 59, 3, 455867)</div></td></tr><tr><td style="font-weight:bold;vertical-align:top;">raw_args</td><td style="vertical-align:top;">:</td><td><div></div></td></tr><tr><td style="font-weight:bold;vertical-align:top;">raw_extension</td><td style="vertical-align:top;">:</td><td><div>None</div></td></tr><tr><td style="font-weight:bold;vertical-align:top;">url</td><td style="vertical-align:top;">:</td><td><div>/slugtutor183/appadmin/index</div></td></tr><tr><td style="font-weight:bold;vertical-align:top;">utcnow</td><td style="vertical-align:top;">:</td><td><div>datetime.datetime(2018, 5, 24, 19, 59, 3, 455876)</div></td></tr><tr><td style="font-weight:bold;vertical-align:top;">wsgi</td><td style="vertical-align:top;">:</td><td><div>&lt;gluon.main.LazyWSGI object at 0x1089f7f10&gt;</div></td></tr></table></div>'
tRp64
sS'frames'
p65
(lp66
(dp67
S'file'
p68
S'/Users/ericpoels/ericcode/cs183/web2py/gluon/restricted.py'
p69
sS'dump'
p70
(dp71
S'environment'
p72
S"{'A': <class 'gluon.html.A'>, 'ANY_OF': <class 'gluon.validators.ANY_OF'>, 'ASSIGNJS': <function ASSIGNJS>, 'AppConfig': <function AppConfig>, 'Auth': <class 'gluon.tools.Auth'>, 'B': <class 'gluon.html.B'>, 'BEAUTIFY': <class 'gluon.html.BEAUTIFY'>, 'BODY': <class 'gluon.html.BODY'>, 'BR': <class 'gluon.html.BR'>, 'BUTTON': <class 'gluon.html.BUTTON'>, ...}"
p73
sS'ccode'
p74
S'<code object <module> at 0x1089f9f30, file "/Use...ications/slugtutor183/models/tables.py", line 10>'
p75
ssS'lnum'
p76
I219
sS'lines'
p77
(dp78
I214
S'    if environment is None:'
p79
sI215
S'        environment = {}'
p80
sI216
S"    environment['__file__'] = layer"
p81
sI217
S"    environment['__name__'] = '__restricted__'"
p82
sI218
S'    try:'
p83
sI219
S'        exec(ccode, environment)'
p84
sI220
S'    except HTTP:'
p85
sI221
S'        raise'
p86
sI222
S'    except RestrictedError:'
p87
sI223
S'        # do not encapsulate (obfuscate) the original RestrictedError'
p88
ssS'call'
p89
S'(ccode=<code object <module> at 0x1089f9f30, file "/Use...ications/slugtutor183/models/tables.py", line 10>, environment={\'A\': <class \'gluon.html.A\'>, \'ANY_OF\': <class \'gluon.validators.ANY_OF\'>, \'ASSIGNJS\': <function ASSIGNJS>, \'AppConfig\': <function AppConfig>, \'Auth\': <class \'gluon.tools.Auth\'>, \'B\': <class \'gluon.html.B\'>, \'BEAUTIFY\': <class \'gluon.html.BEAUTIFY\'>, \'BODY\': <class \'gluon.html.BODY\'>, \'BR\': <class \'gluon.html.BR\'>, \'BUTTON\': <class \'gluon.html.BUTTON\'>, ...}, layer=\'/Users/ericpoels/ericcode/cs183/web2py/applications/slugtutor183/models/tables.py\', scode=<code object <module> at 0x1089f9f30, file "/Use...ications/slugtutor183/models/tables.py", line 10>)'
p90
sS'func'
p91
S'restricted'
p92
sa(dp93
g68
S'/Users/ericpoels/ericcode/cs183/web2py/applications/slugtutor183/models/tables.py'
p94
sg70
(dp95
S'redfine'
p96
S'undefined'
p97
sS'builtinTrue'
p98
S'True'
p99
ssg76
I56
sg77
(dp100
I51
S"\t            Field('title'),"
p101
sI52
S"\t            Field('class_id'),"
p102
sI53
S"\t            Field('professor'),"
p103
sI54
S"\t            Field('department'),"
p104
sI55
S"\t            primarykey=['title', 'class_id', 'department'],"
p105
sI56
S'\t            redfine=True'
p106
sI57
S'\t            )'
p107
sI58
S''
sI59
S"db.define_table('student',"
p108
sI60
S"\t            Field('name'),"
p109
ssg89
S'()'
p110
sg91
S'<module>'
p111
sa(dp112
g68
S'/Users/ericpoels/ericcode/cs183/web2py/gluon/packages/dal/pydal/base.py'
p113
sg70
(dp114
S'fields'
p115
S'(<pydal.objects.Field object>, <pydal.objects.Field object>, <pydal.objects.Field object>, <pydal.objects.Field object>)'
p116
sS'self'
p117
S'<DAL uri="sqlite://storage.sqlite">'
p118
sS'args'
p119
S"{'primarykey': ['title', 'class_id', 'department'], 'redfine': True}"
p120
sS'tablename'
p121
S"'classes'"
p122
sS'table'
p123
g97
sS'self.lazy_define_table'
p124
S'<bound method DAL.lazy_define_table of <DAL uri="sqlite://storage.sqlite">>'
p125
ssg76
I586
sg77
(dp126
I581
S'                                  (tablename, invalid_args))'
p127
sI582
S'        if self._lazy_tables and tablename not in self._LAZY_TABLES:'
p128
sI583
S'            self._LAZY_TABLES[tablename] = (tablename, fields, args)'
p129
sI584
S'            table = None'
p130
sI585
S'        else:'
p131
sI586
S'            table = self.lazy_define_table(tablename, *fields, **args)'
p132
sI587
S'        if tablename not in self.tables:'
p133
sI588
S'            self.tables.append(tablename)'
p134
sI589
S'        return table'
p135
sI590
S''
ssg89
S'(self=<DAL uri="sqlite://storage.sqlite">, tablename=\'classes\', *fields=(<pydal.objects.Field object>, <pydal.objects.Field object>, <pydal.objects.Field object>, <pydal.objects.Field object>), **args={\'primarykey\': [\'title\', \'class_id\', \'department\'], \'redfine\': True})'
p136
sg91
S'define_table'
p137
sa(dp138
g68
S'/Users/ericpoels/ericcode/cs183/web2py/gluon/packages/dal/pydal/base.py'
p139
sg70
(dp140
S'polymodel'
p141
S'None'
p142
ssg76
I620
sg77
(dp143
I615
S'            try:'
p144
sI616
S'                GLOBAL_LOCKER.acquire()'
p145
sI617
S'                self._adapter.create_table('
p146
sI618
S'                    table, migrate=migrate,'
p147
sI619
S'                    fake_migrate=fake_migrate,'
p148
sI620
S'                    polymodel=polymodel)'
p149
sI621
S'            finally:'
p150
sI622
S'                GLOBAL_LOCKER.release()'
p151
sI623
S'        else:'
p152
sI624
S'            table._dbt = None'
p153
ssg89
S'(self=<DAL uri="sqlite://storage.sqlite">, tablename=\'classes\', *fields=(<pydal.objects.Field object>, <pydal.objects.Field object>, <pydal.objects.Field object>, <pydal.objects.Field object>), **args={\'primarykey\': [\'title\', \'class_id\', \'department\'], \'redfine\': True})'
p154
sg91
S'lazy_define_table'
p155
sa(dp156
g68
S'/Users/ericpoels/ericcode/cs183/web2py/gluon/packages/dal/pydal/adapters/base.py'
p157
sg70
(dp158
S'self'
p159
S'<pydal.adapters.sqlite.SQLite object>'
p160
sS'args'
p161
S'(<Table classes (title, class_id, professor, department)>,)'
p162
sS'self.migrator'
p163
S'<pydal.migrator.Migrator object>'
p164
sS'self.migrator.create_table'
p165
S'<bound method Migrator.create_table of <pydal.migrator.Migrator object>>'
p166
sS'kwargs'
p167
S"{'fake_migrate': False, 'migrate': True, 'polymodel': None}"
p168
ssg76
I797
sg77
(dp169
I800
S'        super(SQLAdapter, self)._drop_table_cleanup(table)'
p170
sI801
S'        if table._dbt:'
p171
sI792
S''
sI793
S'    def bulk_insert(self, table, items):'
p172
sI794
S'        return [self.insert(table, item) for item in items]'
p173
sI795
S''
sI796
S'    def create_table(self, *args, **kwargs):'
p174
sI797
S'        return self.migrator.create_table(*args, **kwargs)'
p175
sI798
S''
sI799
S'    def _drop_table_cleanup(self, table):'
p176
ssg89
S"(self=<pydal.adapters.sqlite.SQLite object>, *args=(<Table classes (title, class_id, professor, department)>,), **kwargs={'fake_migrate': False, 'migrate': True, 'polymodel': None})"
p177
sg91
S'create_table'
p178
sa(dp179
g68
S'/Users/ericpoels/ericcode/cs183/web2py/gluon/packages/dal/pydal/migrator.py'
p180
sg70
(dp181
S'fake_migrate'
p182
S'False'
p183
ssg76
I314
sg77
(dp184
I309
S'            if sql_fields != sql_fields_old:'
p185
sI310
S'                self.migrate_table('
p186
sI311
S'                    table,'
p187
sI312
S'                    sql_fields, sql_fields_old,'
p188
sI313
S'                    sql_fields_aux, None,'
p189
sI314
S'                    fake_migrate=fake_migrate'
p190
sI315
S'                    )'
p191
sI316
S'        return query'
p192
sI317
S''
sI318
S'    def _fix(self, item):'
p193
ssg89
S'(self=<pydal.migrator.Migrator object>, table=<Table classes (title, class_id, professor, department)>, migrate=True, fake_migrate=False, polymodel=None)'
p194
sg91
g178
sa(dp195
g68
S'/Users/ericpoels/ericcode/cs183/web2py/gluon/packages/dal/pydal/migrator.py'
p196
sg70
(dp197
S'self'
p198
S'<pydal.migrator.Migrator object>'
p199
sS'self.adapter.execute'
p200
S'<bound method SQLite.wrap of <pydal.adapters.sqlite.SQLite object>>'
p201
sS'self.adapter'
p202
S'<pydal.adapters.sqlite.SQLite object>'
p203
sS'sub_query'
p204
S'\'ALTER TABLE "classes" ADD "class_id" CHAR(512) NOT NULL;\''
p205
ssg76
I447
sg77
(dp206
I448
S'                        # Caveat: mysql, oracle and firebird'
p207
sI449
S'                        # do not allow multiple alter table'
p208
sI450
S'                        # in one transaction so we must commit'
p209
sI451
S'                        # partial transactions and'
p210
sI442
S'                    if fake_migrate:'
p211
sI443
S'                        if db._adapter.commit_on_alter_table:'
p212
sI444
S'                            self.save_dbt(table, sql_fields_current)'
p213
sI445
S"                        self.log('faked!\\n', table)"
p214
sI446
S'                    else:'
p215
sI447
S'                        self.adapter.execute(sub_query)'
p216
ssg89
S'(self=<pydal.migrator.Migrator object>, table=<Table classes (title, class_id, professor, department)>, sql_fields={\'class_id\': {\'length\': 512, \'notnull\': True, \'raw_rname\': \'class_id\', \'rname\': \'"class_id"\', \'sortable\': 2, \'sql\': \'CHAR(512) NOT NULL\', \'type\': \'string\', \'unique\': False}, \'department\': {\'length\': 512, \'notnull\': True, \'raw_rname\': \'department\', \'rname\': \'"department"\', \'sortable\': 4, \'sql\': \'CHAR(512) NOT NULL\', \'type\': \'string\', \'unique\': False}, \'professor\': {\'length\': 512, \'notnull\': False, \'raw_rname\': \'professor\', \'rname\': \'"professor"\', \'sortable\': 3, \'sql\': \'CHAR(512)\', \'type\': \'string\', \'unique\': False}, \'title\': {\'length\': 512, \'notnull\': True, \'raw_rname\': \'title\', \'rname\': \'"title"\', \'sortable\': 1, \'sql\': \'CHAR(512) NOT NULL\', \'type\': \'string\', \'unique\': False}}, sql_fields_old={\'class_number\': {\'length\': 512, \'notnull\': True, \'raw_rname\': \'class_number\', \'rname\': \'"class_number"\', \'sortable\': 2, \'sql\': \'INTEGER NOT NULL\', \'type\': \'integer\', \'unique\': False}, \'department\': {\'length\': 512, \'notnull\': True, \'raw_rname\': \'department\', \'rname\': \'"department"\', \'sortable\': 4, \'sql\': \'CHAR(512) NOT NULL\', \'type\': \'string\', \'unique\': False}, \'professor\': {\'length\': 512, \'notnull\': False, \'raw_rname\': \'professor\', \'rname\': \'"professor"\', \'sortable\': 3, \'sql\': \'CHAR(512)\', \'type\': \'string\', \'unique\': False}, \'title\': {\'length\': 512, \'notnull\': True, \'raw_rname\': \'title\', \'rname\': \'"title"\', \'sortable\': 1, \'sql\': \'CHAR(512) NOT NULL\', \'type\': \'string\', \'unique\': False}}, sql_fields_aux={\'class_id\': {\'sql\': \'CHAR(512) NOT NULL\'}, \'department\': {\'sql\': \'CHAR(512) NOT NULL\'}, \'professor\': {\'sql\': \'CHAR(512)\'}, \'title\': {\'sql\': \'CHAR(512) NOT NULL\'}}, logfile=None, fake_migrate=False)'
p217
sg91
S'migrate_table'
p218
sa(dp219
g68
S'/Users/ericpoels/ericcode/cs183/web2py/gluon/packages/dal/pydal/adapters/__init__.py'
p220
sg70
(dp221
S'kwargs'
p222
g21
sS'args'
p223
S'(<pydal.adapters.sqlite.SQLite object>, \'ALTER TABLE "classes" ADD "class_id" CHAR(512) NOT NULL;\')'
p224
sS'f'
S'<function execute>'
p225
ssg76
I67
sg77
(dp226
I64
S'            if len(args) > 1:'
p227
sI65
S'                raise ValueError(args[1])'
p228
sI66
S"            raise RuntimeError('no connection available')"
p229
sI67
S'        return f(*args, **kwargs)'
p230
sI68
S'    return wrap'
p231
sI69
S''
sI70
S''
sI71
S'from .base import SQLAdapter, NoSQLAdapter'
p232
sI62
S'    def wrap(*args, **kwargs):'
p233
sI63
S'        if not args[0].connection:'
p234
ssg89
S'(*args=(<pydal.adapters.sqlite.SQLite object>, \'ALTER TABLE "classes" ADD "class_id" CHAR(512) NOT NULL;\'), **kwargs={})'
p235
sg91
S'wrap'
p236
sa(dp237
g68
S'/Users/ericpoels/ericcode/cs183/web2py/gluon/packages/dal/pydal/adapters/base.py'
p238
sg70
(dp239
S'rv'
p240
g97
sS'self'
p241
S'<pydal.adapters.sqlite.SQLite object>'
p242
sS'args'
p243
S'(\'ALTER TABLE "classes" ADD "class_id" CHAR(512) NOT NULL;\',)'
p244
sS'self.cursor'
p245
S'<sqlite3.Cursor object>'
p246
sS'command'
p247
S'\'ALTER TABLE "classes" ADD "class_id" CHAR(512) NOT NULL;\''
p248
sS'self.cursor.execute'
p249
S'<built-in method execute of sqlite3.Cursor object>'
p250
sS'kwargs'
p251
g21
ssg76
I412
sg77
(dp252
I416
S''
sI407
S'    def execute(self, *args, **kwargs):'
p253
sI408
S'        command = self.filter_sql_command(args[0])'
p254
sI409
S'        handlers = self._build_handlers_for_execution()'
p255
sI410
S'        for handler in handlers:'
p256
sI411
S'            handler.before_execute(command)'
p257
sI412
S'        rv = self.cursor.execute(command, *args[1:], **kwargs)'
p258
sI413
S'        for handler in handlers:'
p259
sI414
S'            handler.after_execute(command)'
p260
sI415
S'        return rv'
p261
ssg89
S'(self=<pydal.adapters.sqlite.SQLite object>, *args=(\'ALTER TABLE "classes" ADD "class_id" CHAR(512) NOT NULL;\',), **kwargs={})'
p262
sg91
S'execute'
p263
sasS'pyver'
p264
S'Python 2.7.10: /usr/bin/python (prefix: /System/Library/Frameworks/Python.framework/Versions/2.7)'
p265
sS'session'
p266
g63
(S's\x1a\x00\x00\x00<div><table></table></div>'
tRp267
sS'etype'
p268
S"<class 'sqlite3.OperationalError'>"
p269
sS'date'
p270
S'Thu May 24 12:59:03 2018'
p271
sS'response'
p272
g63
(S's\t\x17\x00\x00<div><table><tr><td style="font-weight:bold;vertical-align:top;">body</td><td style="vertical-align:top;">:</td><td><div>&lt;cStringIO.StringO object at 0x108457b90&gt;</div></td></tr><tr><td style="font-weight:bold;vertical-align:top;">cookies</td><td style="vertical-align:top;">:</td><td><div><table></table></div></td></tr><tr><td style="font-weight:bold;vertical-align:top;">delimiters</td><td style="vertical-align:top;">:</td><td><div><table><tr><td><div>{{</div></td></tr><tr><td><div>}}</div></td></tr></table></div></td></tr><tr><td style="font-weight:bold;vertical-align:top;">files</td><td style="vertical-align:top;">:</td><td><div><table></table></div></td></tr><tr><td style="font-weight:bold;vertical-align:top;">flash</td><td style="vertical-align:top;">:</td><td><div></div></td></tr><tr><td style="font-weight:bold;vertical-align:top;">form_label_separator</td><td style="vertical-align:top;">:</td><td><div></div></td></tr><tr><td style="font-weight:bold;vertical-align:top;">formstyle</td><td style="vertical-align:top;">:</td><td><div>bootstrap3_inline</div></td></tr><tr><td style="font-weight:bold;vertical-align:top;">generic_patterns</td><td style="vertical-align:top;">:</td><td><div><table><tr><td><div>*</div></td></tr></table></div></td></tr><tr><td style="font-weight:bold;vertical-align:top;">google_analytics_id</td><td style="vertical-align:top;">:</td><td><div>None</div></td></tr><tr><td style="font-weight:bold;vertical-align:top;">headers</td><td style="vertical-align:top;">:</td><td><div><table><tr><td style="font-weight:bold;vertical-align:top;">X-Powered-By</td><td style="vertical-align:top;">:</td><td><div>web2py</div></td></tr></table></div></td></tr><tr><td style="font-weight:bold;vertical-align:top;">logo</td><td style="vertical-align:top;">:</td><td><div><a class="navbar-brand" href="http://www.web2py.com/" id="web2py-logo"><b>web<span>2</span>py</b>&trade;&nbsp;</a></div></td></tr><tr><td style="font-weight:bold;vertical-align:top;">menu</td><td style="vertical-align:top;">:</td><td><div><table><tr><td><div><table><tr><td><div>Slugtutor</div></td></tr><tr><td><div>False</div></td></tr><tr><td><div>/slugtutor183/default/index</div></td></tr><tr><td><div><table></table></div></td></tr></table></div></td></tr></table></div></td></tr><tr><td style="font-weight:bold;vertical-align:top;">meta</td><td style="vertical-align:top;">:</td><td><div><table><tr><td style="font-weight:bold;vertical-align:top;">author</td><td style="vertical-align:top;">:</td><td><div>Your Name &lt;you@example.com&gt;</div></td></tr><tr><td style="font-weight:bold;vertical-align:top;">description</td><td style="vertical-align:top;">:</td><td><div>a cool new app</div></td></tr><tr><td style="font-weight:bold;vertical-align:top;">generator</td><td style="vertical-align:top;">:</td><td><div>Web2py Web Framework</div></td></tr><tr><td style="font-weight:bold;vertical-align:top;">keywords</td><td style="vertical-align:top;">:</td><td><div><table><tr><td><div>web2py</div></td></tr><tr><td><div>python</div></td></tr><tr><td><div>framework</div></td></tr></table></div></td></tr></table></div></td></tr><tr><td style="font-weight:bold;vertical-align:top;">models_to_run</td><td style="vertical-align:top;">:</td><td><div><table><tr><td><div>^\\w+\\.py$</div></td></tr><tr><td><div>^appadmin/\\w+\\.py$</div></td></tr><tr><td><div>^appadmin/index/\\w+\\.py$</div></td></tr></table></div></td></tr><tr><td style="font-weight:bold;vertical-align:top;">postprocessing</td><td style="vertical-align:top;">:</td><td><div><table></table></div></td></tr><tr><td style="font-weight:bold;vertical-align:top;">session_client</td><td style="vertical-align:top;">:</td><td><div>127.0.0.1</div></td></tr><tr><td style="font-weight:bold;vertical-align:top;">session_cookie_compression_level</td><td style="vertical-align:top;">:</td><td><div>None</div></td></tr><tr><td style="font-weight:bold;vertical-align:top;">session_cookie_expires</td><td style="vertical-align:top;">:</td><td><div>None</div></td></tr><tr><td style="font-weight:bold;vertical-align:top;">session_data_name</td><td style="vertical-align:top;">:</td><td><div>session_data_slugtutor183</div></td></tr><tr><td style="font-weight:bold;vertical-align:top;">session_db_table</td><td style="vertical-align:top;">:</td><td><div>&lt;Table web2py_session_slugtutor183 (id, locked, client_ip, created_datetime, modified_datetime, unique_key, session_data)&gt;</div></td></tr><tr><td style="font-weight:bold;vertical-align:top;">session_hash</td><td style="vertical-align:top;">:</td><td><div>c0762cbf4baf7f9af97c051e7fcb8083</div></td></tr><tr><td style="font-weight:bold;vertical-align:top;">session_id</td><td style="vertical-align:top;">:</td><td><div>None</div></td></tr><tr><td style="font-weight:bold;vertical-align:top;">session_id_name</td><td style="vertical-align:top;">:</td><td><div>session_id_slugtutor183</div></td></tr><tr><td style="font-weight:bold;vertical-align:top;">session_masterapp</td><td style="vertical-align:top;">:</td><td><div>slugtutor183</div></td></tr><tr><td style="font-weight:bold;vertical-align:top;">session_new</td><td style="vertical-align:top;">:</td><td><div>True</div></td></tr><tr><td style="font-weight:bold;vertical-align:top;">session_storage_type</td><td style="vertical-align:top;">:</td><td><div>db</div></td></tr><tr><td style="font-weight:bold;vertical-align:top;">status</td><td style="vertical-align:top;">:</td><td><div>200</div></td></tr><tr><td style="font-weight:bold;vertical-align:top;">subtitle</td><td style="vertical-align:top;">:</td><td><div></div></td></tr><tr><td style="font-weight:bold;vertical-align:top;">title</td><td style="vertical-align:top;">:</td><td><div>Slugtutor183</div></td></tr><tr><td style="font-weight:bold;vertical-align:top;">view</td><td style="vertical-align:top;">:</td><td><div>appadmin/index.html</div></td></tr></table></div>'
tRp273
sS'locals'
p274
(dp275
S'handlers'
p276
S'[<pydal.helpers.classes.TimingHandler object>]'
p277
sS'self'
p278
S'<pydal.adapters.sqlite.SQLite object>'
p279
sg48
S'(\'ALTER TABLE "classes" ADD "class_id" CHAR(512) NOT NULL;\',)'
p280
sS'handler'
p281
S'<pydal.helpers.classes.TimingHandler object>'
p282
sS'command'
p283
S'\'ALTER TABLE "classes" ADD "class_id" CHAR(512) NOT NULL;\''
p284
sS'kwargs'
p285
g21
sssS'traceback'
p286
S'Traceback (most recent call last):\n  File "/Users/ericpoels/ericcode/cs183/web2py/gluon/restricted.py", line 219, in restricted\n    exec(ccode, environment)\n  File "/Users/ericpoels/ericcode/cs183/web2py/applications/slugtutor183/models/tables.py", line 56, in <module>\n    redfine=True\n  File "/Users/ericpoels/ericcode/cs183/web2py/gluon/packages/dal/pydal/base.py", line 586, in define_table\n    table = self.lazy_define_table(tablename, *fields, **args)\n  File "/Users/ericpoels/ericcode/cs183/web2py/gluon/packages/dal/pydal/base.py", line 620, in lazy_define_table\n    polymodel=polymodel)\n  File "/Users/ericpoels/ericcode/cs183/web2py/gluon/packages/dal/pydal/adapters/base.py", line 797, in create_table\n    return self.migrator.create_table(*args, **kwargs)\n  File "/Users/ericpoels/ericcode/cs183/web2py/gluon/packages/dal/pydal/migrator.py", line 314, in create_table\n    fake_migrate=fake_migrate\n  File "/Users/ericpoels/ericcode/cs183/web2py/gluon/packages/dal/pydal/migrator.py", line 447, in migrate_table\n    self.adapter.execute(sub_query)\n  File "/Users/ericpoels/ericcode/cs183/web2py/gluon/packages/dal/pydal/adapters/__init__.py", line 67, in wrap\n    return f(*args, **kwargs)\n  File "/Users/ericpoels/ericcode/cs183/web2py/gluon/packages/dal/pydal/adapters/base.py", line 412, in execute\n    rv = self.cursor.execute(command, *args[1:], **kwargs)\nOperationalError: Cannot add a NOT NULL column with default value NULL\n'
p287
s.